target datalayout = "e-m:e-p270:32:32-p271:32:32-p272:64:64-i64:64-i128:128-f80:128-n8:16:32:64-S128"
target triple = "x86_64-pc-linux-gnu"

; Function Attrs: mustprogress nounwind uwtable
define hidden void @_Z4copyjPKjjPj(i32 noundef %0, ptr noundef %1, i32 noundef %2, ptr noundef %3) #4 {
  %5 = alloca i32, align 4
  %6 = alloca ptr, align 8
  %7 = alloca i32, align 4
  %8 = alloca ptr, align 8
  %9 = alloca i32, align 4
  %10 = alloca i32, align 4
  store i32 %0, ptr %5, align 4, !tbaa !3
  store ptr %1, ptr %6, align 8, !tbaa !7
  store i32 %2, ptr %7, align 4, !tbaa !3
  store ptr %3, ptr %8, align 8, !tbaa !7
  %11 = load i32, ptr %7, align 4, !tbaa !3
  %12 = load i32, ptr %5, align 4, !tbaa !3
  %13 = icmp uge i32 %11, %12
  br i1 %13, label %14, label %46

14:                                               ; preds = %4
  call void @llvm.lifetime.start.p0(i64 4, ptr %9) #3
  store i32 0, ptr %9, align 4, !tbaa !3
  br label %15

15:                                               ; preds = %29, %14
  %16 = load i32, ptr %9, align 4, !tbaa !3
  %17 = load i32, ptr %5, align 4, !tbaa !3
  %18 = icmp ult i32 %16, %17
  br i1 %18, label %19, label %32

19:                                               ; preds = %15
  %20 = load ptr, ptr %6, align 8, !tbaa !7
  %21 = load i32, ptr %9, align 4, !tbaa !3
  %22 = zext i32 %21 to i64
  %23 = getelementptr inbounds nuw i32, ptr %20, i64 %22
  %24 = load i32, ptr %23, align 4, !tbaa !3
  %25 = load ptr, ptr %8, align 8, !tbaa !7
  %26 = load i32, ptr %9, align 4, !tbaa !3
  %27 = zext i32 %26 to i64
  %28 = getelementptr inbounds nuw i32, ptr %25, i64 %27
  store i32 %24, ptr %28, align 4, !tbaa !3
  br label %29

29:                                               ; preds = %19
  %30 = load i32, ptr %9, align 4, !tbaa !3
  %31 = add i32 %30, 1
  store i32 %31, ptr %9, align 4, !tbaa !3
  br label %15, !llvm.loop !13

32:                                               ; preds = %15
  br label %33

33:                                               ; preds = %42, %32
  %34 = load i32, ptr %9, align 4, !tbaa !3
  %35 = load i32, ptr %7, align 4, !tbaa !3
  %36 = icmp ult i32 %34, %35
  br i1 %36, label %37, label %45

37:                                               ; preds = %33
  %38 = load ptr, ptr %8, align 8, !tbaa !7
  %39 = load i32, ptr %9, align 4, !tbaa !3
  %40 = zext i32 %39 to i64
  %41 = getelementptr inbounds nuw i32, ptr %38, i64 %40
  store i32 0, ptr %41, align 4, !tbaa !3
  br label %42

42:                                               ; preds = %37
  %43 = load i32, ptr %9, align 4, !tbaa !3
  %44 = add i32 %43, 1
  store i32 %44, ptr %9, align 4, !tbaa !3
  br label %33, !llvm.loop !14

45:                                               ; preds = %33
  call void @llvm.lifetime.end.p0(i64 4, ptr %9) #3
  br label %66

46:                                               ; preds = %4
  call void @llvm.lifetime.start.p0(i64 4, ptr %10) #3
  store i32 0, ptr %10, align 4, !tbaa !3
  br label %47

47:                                               ; preds = %62, %46
  %48 = load i32, ptr %10, align 4, !tbaa !3
  %49 = load i32, ptr %7, align 4, !tbaa !3
  %50 = icmp ult i32 %48, %49
  br i1 %50, label %52, label %51

51:                                               ; preds = %47
  call void @llvm.lifetime.end.p0(i64 4, ptr %10) #3
  br label %65

52:                                               ; preds = %47
  %53 = load ptr, ptr %6, align 8, !tbaa !7
  %54 = load i32, ptr %10, align 4, !tbaa !3
  %55 = zext i32 %54 to i64
  %56 = getelementptr inbounds nuw i32, ptr %53, i64 %55
  %57 = load i32, ptr %56, align 4, !tbaa !3
  %58 = load ptr, ptr %8, align 8, !tbaa !7
  %59 = load i32, ptr %10, align 4, !tbaa !3
  %60 = zext i32 %59 to i64
  %61 = getelementptr inbounds nuw i32, ptr %58, i64 %60
  store i32 %57, ptr %61, align 4, !tbaa !3
  br label %62

62:                                               ; preds = %52
  %63 = load i32, ptr %10, align 4, !tbaa !3
  %64 = add i32 %63, 1
  store i32 %64, ptr %10, align 4, !tbaa !3
  br label %47, !llvm.loop !15

65:                                               ; preds = %51
  br label %66

66:                                               ; preds = %65, %45
  ret void
}