; Function Attrs: mustprogress nofree norecurse nosync nounwind memory(argmem: readwrite) uwtable
define hidden void @_Z4copyjPKjjPj(i32 noundef %0, ptr noundef readonly captures(none) %1, i32 noundef %2, ptr noundef writeonly captures(none) %3) local_unnamed_addr #6 {
  %.not = icmp ult i32 %2, %0
  br i1 %.not, label %.preheader, label %.preheader26

.preheader26:                                     ; preds = %4
  %.not32 = icmp eq i32 %0, 0
  br i1 %.not32, label %.preheader24, label %.lr.ph.preheader

.lr.ph.preheader:                                 ; preds = %.preheader26
  %wide.trip.count = zext i32 %0 to i64
  br label %.lr.ph

.preheader:                                       ; preds = %4
  %.not33 = icmp eq i32 %2, 0
  br i1 %.not33, label %.loopexit, label %.lr.ph31.preheader

.lr.ph31.preheader:                               ; preds = %.preheader
  %wide.trip.count42 = zext i32 %2 to i64
  br label %.lr.ph31

.preheader24:                                     ; preds = %.lr.ph, %.preheader26
  %5 = icmp ult i32 %0, %2
  br i1 %5, label %.lr.ph29.preheader, label %.loopexit

.lr.ph29.preheader:                               ; preds = %.preheader24
  %6 = zext i32 %0 to i64
  %7 = shl nuw nsw i64 %6, 2
  %scevgep = getelementptr i8, ptr %3, i64 %7
  %8 = xor i32 %0, -1
  %9 = add i32 %2, %8
  %10 = zext i32 %9 to i64
  %11 = shl nuw nsw i64 %10, 2
  %12 = add nuw nsw i64 %11, 4
  tail call void @llvm.memset.p0.i64(ptr noundef nonnull align 4 dereferenceable(1) %scevgep, i8 0, i64 %12, i1 false), !tbaa !3
  br label %.loopexit

.lr.ph:                                           ; preds = %.lr.ph.preheader, %.lr.ph
  %indvars.iv = phi i64 [ 0, %.lr.ph.preheader ], [ %indvars.iv.next, %.lr.ph ]
  %13 = getelementptr inbounds nuw i32, ptr %1, i64 %indvars.iv
  %14 = load i32, ptr %13, align 4, !tbaa !3
  %15 = getelementptr inbounds nuw i32, ptr %3, i64 %indvars.iv
  store i32 %14, ptr %15, align 4, !tbaa !3
  %indvars.iv.next = add nuw nsw i64 %indvars.iv, 1
  %exitcond.not = icmp eq i64 %indvars.iv.next, %wide.trip.count
  br i1 %exitcond.not, label %.preheader24, label %.lr.ph, !llvm.loop !10

.lr.ph31:                                         ; preds = %.lr.ph31.preheader, %.lr.ph31
  %indvars.iv39 = phi i64 [ 0, %.lr.ph31.preheader ], [ %indvars.iv.next40, %.lr.ph31 ]
  %16 = getelementptr inbounds nuw i32, ptr %1, i64 %indvars.iv39
  %17 = load i32, ptr %16, align 4, !tbaa !3
  %18 = getelementptr inbounds nuw i32, ptr %3, i64 %indvars.iv39
  store i32 %17, ptr %18, align 4, !tbaa !3
  %indvars.iv.next40 = add nuw nsw i64 %indvars.iv39, 1
  %exitcond43.not = icmp eq i64 %indvars.iv.next40, %wide.trip.count42
  br i1 %exitcond43.not, label %.loopexit, label %.lr.ph31, !llvm.loop !11

.loopexit:                                        ; preds = %.lr.ph31, %.lr.ph29.preheader, %.preheader24, %.preheader
  ret void
}